target datalayout = "e-m:e-p270:32:32-p271:32:32-p272:64:64-i64:64-i128:128-f80:128-n8:16:32:64-S128"
target triple = "x86_64-pc-linux-gnu"

%struct._GtkTreeIter = type { i32, ptr, ptr, ptr }
%struct.popup_info = type { ptr, ptr, i32, i32, ptr, ptr, ptr, %struct._GtkTreeIter, ptr, ptr, i32, i8, ptr, ptr, i32, ptr, ptr, i32, i32 }

@.str.48 = private unnamed_addr constant [35 x i8] c"job error getting iter from model\0A\00", align 1
@.str.49 = private unnamed_addr constant [37 x i8] c"UNKNOWN type %d given to set_fields\0A\00", align 1

; Function Attrs: nounwind uwtable
define dso_local void @set_menus_job(ptr noundef %0, ptr noundef %1, ptr noundef %2, i32 noundef %3) #0 {
  %5 = alloca ptr, align 8
  %6 = alloca ptr, align 8
  %7 = alloca ptr, align 8
  %8 = alloca i32, align 4
  %9 = alloca ptr, align 8
  %10 = alloca ptr, align 8
  %11 = alloca ptr, align 8
  %12 = alloca ptr, align 8
  %13 = alloca ptr, align 8
  %14 = alloca %struct._GtkTreeIter, align 8
  %15 = alloca i32, align 4
  store ptr %0, ptr %5, align 8
  store ptr %1, ptr %6, align 8
  store ptr %2, ptr %7, align 8
  store i32 %3, ptr %8, align 4
  call void @llvm.lifetime.start.p0(i64 8, ptr %9) #11
  %16 = load ptr, ptr %5, align 8
  store ptr %16, ptr %9, align 8
  call void @llvm.lifetime.start.p0(i64 8, ptr %10) #11
  %17 = load ptr, ptr %5, align 8
  store ptr %17, ptr %10, align 8
  call void @llvm.lifetime.start.p0(i64 8, ptr %11) #11
  %18 = load ptr, ptr %6, align 8
  store ptr %18, ptr %11, align 8
  call void @llvm.lifetime.start.p0(i64 8, ptr %12) #11
  %19 = load ptr, ptr %6, align 8
  store ptr %19, ptr %12, align 8
  %20 = load i32, ptr %8, align 4
  switch i32 %20, label %51 [
    i32 0, label %21
    i32 2, label %23
    i32 1, label %27
    i32 3, label %30
    i32 4, label %45
  ]

21:                                               ; preds = %4
  %22 = load ptr, ptr %11, align 8
  call void @make_fields_menu(ptr noundef null, ptr noundef %22, ptr noundef @display_data_job, i32 noundef 95)
  br label %57

23:                                               ; preds = %4
  %24 = load ptr, ptr %9, align 8
  %25 = load ptr, ptr %7, align 8
  %26 = load ptr, ptr %11, align 8
  call void @make_options_menu(ptr noundef %24, ptr noundef %25, ptr noundef %26, ptr noundef @options_data_job)
  br label %57

27:                                               ; preds = %4
  %28 = load ptr, ptr %9, align 8
  %29 = load ptr, ptr %12, align 8
  call void @highlight_grid(ptr noundef %28, i32 noundef 52, i32 noundef 12, ptr noundef %29)
  br label %57

30:                                               ; preds = %4
  call void @llvm.lifetime.start.p0(i64 8, ptr %13) #11
  %31 = load ptr, ptr %9, align 8
  %32 = call ptr @gtk_tree_view_get_model(ptr noundef %31)
  store ptr %32, ptr %13, align 8
  call void @llvm.lifetime.start.p0(i64 32, ptr %14) #11
  %33 = load ptr, ptr %13, align 8
  %34 = load ptr, ptr %7, align 8
  %35 = call i32 @gtk_tree_model_get_iter(ptr noundef %33, ptr noundef %14, ptr noundef %34)
  %36 = icmp ne i32 %35, 0
  br i1 %36, label %42, label %37

37:                                               ; preds = %30
  br label %38

38:                                               ; preds = %37
  call void (ptr, i32, ptr, ...) @g_log(ptr noundef null, i32 noundef 4, ptr noundef @.str.48)
  br label %39

39:                                               ; preds = %39, %38
  br label %39, !llvm.loop !33

40:                                               ; No predecessors!
  br label %41

41:                                               ; preds = %40
  store i32 2, ptr %15, align 4
  br label %44

42:                                               ; preds = %30
  %43 = load ptr, ptr %13, align 8
  call void @popup_all_job(ptr noundef %43, ptr noundef %14, i32 noundef 8)
  store i32 2, ptr %15, align 4
  br label %44

44:                                               ; preds = %42, %41
  call void @llvm.lifetime.end.p0(i64 32, ptr %14) #11
  call void @llvm.lifetime.end.p0(i64 8, ptr %13) #11
  br label %57

45:                                               ; preds = %4
  %46 = load ptr, ptr %10, align 8
  %47 = load ptr, ptr %11, align 8
  %48 = load ptr, ptr %10, align 8
  %49 = getelementptr inbounds nuw %struct.popup_info, ptr %48, i32 0, i32 0
  %50 = load ptr, ptr %49, align 8
  call void @make_fields_menu(ptr noundef %46, ptr noundef %47, ptr noundef %50, i32 noundef 95)
  br label %57

51:                                               ; preds = %4
  br label %52

52:                                               ; preds = %51
  %53 = load i32, ptr %8, align 4
  call void (ptr, i32, ptr, ...) @g_log(ptr noundef null, i32 noundef 4, ptr noundef @.str.49, i32 noundef %53)
  br label %54

54:                                               ; preds = %54, %52
  br label %54, !llvm.loop !34

55:                                               ; No predecessors!
  br label %56

56:                                               ; preds = %55
  br label %57

57:                                               ; preds = %56, %45, %44, %27, %23, %21
  call void @llvm.lifetime.end.p0(i64 8, ptr %12) #11
  call void @llvm.lifetime.end.p0(i64 8, ptr %11) #11
  call void @llvm.lifetime.end.p0(i64 8, ptr %10) #11
  call void @llvm.lifetime.end.p0(i64 8, ptr %9) #11
  ret void
}