; Function Attrs: nounwind uwtable
define dso_local void @set_menus_job(ptr noundef %0, ptr noundef %1, ptr noundef %2, i32 noundef %3) local_unnamed_addr #0 {
  %5 = alloca %struct._GtkTreeIter, align 8
  switch i32 %3, label %17 [
    i32 0, label %6
    i32 2, label %7
    i32 1, label %8
    i32 3, label %9
    i32 4, label %15
  ]

6:                                                ; preds = %4
  tail call void @make_fields_menu(ptr noundef null, ptr noundef %1, ptr noundef nonnull @display_data_job, i32 noundef 95) #16
  br label %19

7:                                                ; preds = %4
  tail call void @make_options_menu(ptr noundef %0, ptr noundef %2, ptr noundef %1, ptr noundef nonnull @options_data_job) #16
  br label %19

8:                                                ; preds = %4
  tail call void @highlight_grid(ptr noundef %0, i32 noundef 52, i32 noundef 12, ptr noundef %1) #16
  br label %19

9:                                                ; preds = %4
  %10 = tail call ptr @gtk_tree_view_get_model(ptr noundef %0) #16
  call void @llvm.lifetime.start.p0(i64 32, ptr nonnull %5) #16
  %11 = call i32 @gtk_tree_model_get_iter(ptr noundef %10, ptr noundef nonnull %5, ptr noundef %2) #16
  %.not = icmp eq i32 %11, 0
  br i1 %.not, label %12, label %14

12:                                               ; preds = %9
  call void (ptr, i32, ptr, ...) @g_log(ptr noundef null, i32 noundef 4, ptr noundef nonnull @.str.48) #16
  br label %13

13:                                               ; preds = %13, %12
  br label %13, !llvm.loop !40

14:                                               ; preds = %9
  call void @popup_all_job(ptr noundef %10, ptr noundef nonnull %5, i32 noundef 8)
  call void @llvm.lifetime.end.p0(i64 32, ptr nonnull %5) #16
  br label %19

15:                                               ; preds = %4
  %16 = load ptr, ptr %0, align 8
  tail call void @make_fields_menu(ptr noundef nonnull %0, ptr noundef %1, ptr noundef %16, i32 noundef 95) #16
  br label %19

17:                                               ; preds = %4
  tail call void (ptr, i32, ptr, ...) @g_log(ptr noundef null, i32 noundef 4, ptr noundef nonnull @.str.49, i32 noundef %3) #16
  br label %18

18:                                               ; preds = %18, %17
  br label %18, !llvm.loop !41

19:                                               ; preds = %15, %14, %8, %7, %6
  ret void
}